target datalayout = "e-m:e-p270:32:32-p271:32:32-p272:64:64-i64:64-i128:128-f80:128-n8:16:32:64-S128"
target triple = "x86_64-unknown-linux-gnu"

%"class.llvh::ArrayRef" = type { ptr, i64 }

@.str = private unnamed_addr constant [36 x i8] c"malformed sleb128, extends past end\00", align 1

; Function Attrs: mustprogress nounwind uwtable
define linkonce_odr hidden noundef i64 @_ZN4llvh13decodeSLEB128EPKhPjS1_PPKc(ptr noundef %p, ptr noundef %n, ptr noundef %end, ptr noundef %error) #0 comdat {
entry:
  %retval = alloca i64, align 8
  %p.addr = alloca ptr, align 8
  %n.addr = alloca ptr, align 8
  %end.addr = alloca ptr, align 8
  %error.addr = alloca ptr, align 8
  %orig_p = alloca ptr, align 8
  %Value = alloca i64, align 8
  %Shift = alloca i32, align 4
  %Byte = alloca i8, align 1
  store ptr %p, ptr %p.addr, align 8
  store ptr %n, ptr %n.addr, align 8
  store ptr %end, ptr %end.addr, align 8
  store ptr %error, ptr %error.addr, align 8
  %0 = load ptr, ptr %p.addr, align 8
  store ptr %0, ptr %orig_p, align 8
  store i64 0, ptr %Value, align 8
  store i32 0, ptr %Shift, align 4
  br label %do.body

do.body:                                          ; preds = %do.cond, %entry
  %1 = load ptr, ptr %end.addr, align 8
  %tobool = icmp ne ptr %1, null
  br i1 %tobool, label %land.lhs.true, label %if.end6

land.lhs.true:                                    ; preds = %do.body
  %2 = load ptr, ptr %p.addr, align 8
  %3 = load ptr, ptr %end.addr, align 8
  %cmp = icmp eq ptr %2, %3
  br i1 %cmp, label %if.then, label %if.end6

if.then:                                          ; preds = %land.lhs.true
  %4 = load ptr, ptr %error.addr, align 8
  %tobool1 = icmp ne ptr %4, null
  br i1 %tobool1, label %if.then2, label %if.end

if.then2:                                         ; preds = %if.then
  %5 = load ptr, ptr %error.addr, align 8
  store ptr @.str, ptr %5, align 8
  br label %if.end

if.end:                                           ; preds = %if.then2, %if.then
  %6 = load ptr, ptr %n.addr, align 8
  %tobool3 = icmp ne ptr %6, null
  br i1 %tobool3, label %if.then4, label %if.end5

if.then4:                                         ; preds = %if.end
  %7 = load ptr, ptr %p.addr, align 8
  %8 = load ptr, ptr %orig_p, align 8
  %sub.ptr.lhs.cast = ptrtoint ptr %7 to i64
  %sub.ptr.rhs.cast = ptrtoint ptr %8 to i64
  %sub.ptr.sub = sub i64 %sub.ptr.lhs.cast, %sub.ptr.rhs.cast
  %conv = trunc i64 %sub.ptr.sub to i32
  %9 = load ptr, ptr %n.addr, align 8
  store i32 %conv, ptr %9, align 4
  br label %if.end5

if.end5:                                          ; preds = %if.then4, %if.end
  store i64 0, ptr %retval, align 8
  br label %return

if.end6:                                          ; preds = %land.lhs.true, %do.body
  %10 = load ptr, ptr %p.addr, align 8
  %incdec.ptr = getelementptr inbounds i8, ptr %10, i32 1
  store ptr %incdec.ptr, ptr %p.addr, align 8
  %11 = load i8, ptr %10, align 1
  store i8 %11, ptr %Byte, align 1
  %12 = load i8, ptr %Byte, align 1
  %conv7 = zext i8 %12 to i32
  %and = and i32 %conv7, 127
  %conv8 = sext i32 %and to i64
  %13 = load i32, ptr %Shift, align 4
  %sh_prom = zext i32 %13 to i64
  %shl = shl i64 %conv8, %sh_prom
  %14 = load i64, ptr %Value, align 8
  %or = or i64 %14, %shl
  store i64 %or, ptr %Value, align 8
  %15 = load i32, ptr %Shift, align 4
  %add = add i32 %15, 7
  store i32 %add, ptr %Shift, align 4
  br label %do.cond

do.cond:                                          ; preds = %if.end6
  %16 = load i8, ptr %Byte, align 1
  %conv9 = zext i8 %16 to i32
  %cmp10 = icmp sge i32 %conv9, 128
  br i1 %cmp10, label %do.body, label %do.end, !llvm.loop !8

do.end:                                           ; preds = %do.cond
  %17 = load i8, ptr %Byte, align 1
  %conv11 = zext i8 %17 to i32
  %and12 = and i32 %conv11, 64
  %tobool13 = icmp ne i32 %and12, 0
  br i1 %tobool13, label %if.then14, label %if.end18

if.then14:                                        ; preds = %do.end
  %18 = load i32, ptr %Shift, align 4
  %sh_prom15 = zext i32 %18 to i64
  %shl16 = shl i64 -1, %sh_prom15
  %19 = load i64, ptr %Value, align 8
  %or17 = or i64 %19, %shl16
  store i64 %or17, ptr %Value, align 8
  br label %if.end18

if.end18:                                         ; preds = %if.then14, %do.end
  %20 = load ptr, ptr %n.addr, align 8
  %tobool19 = icmp ne ptr %20, null
  br i1 %tobool19, label %if.then20, label %if.end25

if.then20:                                        ; preds = %if.end18
  %21 = load ptr, ptr %p.addr, align 8
  %22 = load ptr, ptr %orig_p, align 8
  %sub.ptr.lhs.cast21 = ptrtoint ptr %21 to i64
  %sub.ptr.rhs.cast22 = ptrtoint ptr %22 to i64
  %sub.ptr.sub23 = sub i64 %sub.ptr.lhs.cast21, %sub.ptr.rhs.cast22
  %conv24 = trunc i64 %sub.ptr.sub23 to i32
  %23 = load ptr, ptr %n.addr, align 8
  store i32 %conv24, ptr %23, align 4
  br label %if.end25

if.end25:                                         ; preds = %if.then20, %if.end18
  %24 = load i64, ptr %Value, align 8
  store i64 %24, ptr %retval, align 8
  br label %return

return:                                           ; preds = %if.end25, %if.end5
  %25 = load i64, ptr %retval, align 8
  ret i64 %25
}

; Function Attrs: mustprogress nounwind uwtable
define linkonce_odr hidden noundef nonnull align 1 dereferenceable(1) ptr @_ZNK4llvh8ArrayRefIhEixEm(ptr noundef nonnull align 8 dereferenceable(16) %this, i64 noundef %Index) #0 comdat align 2 {
entry:
  %this.addr = alloca ptr, align 8
  %Index.addr = alloca i64, align 8
  store ptr %this, ptr %this.addr, align 8
  store i64 %Index, ptr %Index.addr, align 8
  %this1 = load ptr, ptr %this.addr, align 8
  %Data = getelementptr inbounds %"class.llvh::ArrayRef", ptr %this1, i32 0, i32 0
  %0 = load ptr, ptr %Data, align 8
  %1 = load i64, ptr %Index.addr, align 8
  %arrayidx = getelementptr inbounds i8, ptr %0, i64 %1
  ret ptr %arrayidx
}

; Function Attrs: mustprogress nounwind uwtable
define hidden noundef i32 @_ZN6hermes16readSignedLEB128EN4llvh8ArrayRefIhEEjPl(ptr %data.coerce0, i64 %data.coerce1, i32 noundef %offset, ptr noundef %output) #0 {
entry:
  %data = alloca %"class.llvh::ArrayRef", align 8
  %offset.addr = alloca i32, align 4
  %output.addr = alloca ptr, align 8
  %size = alloca i32, align 4
  %0 = getelementptr inbounds { ptr, i64 }, ptr %data, i32 0, i32 0
  store ptr %data.coerce0, ptr %0, align 8
  %1 = getelementptr inbounds { ptr, i64 }, ptr %data, i32 0, i32 1
  store i64 %data.coerce1, ptr %1, align 8
  store i32 %offset, ptr %offset.addr, align 4
  store ptr %output, ptr %output.addr, align 8
  %2 = load i32, ptr %offset.addr, align 4
  %conv = zext i32 %2 to i64
  %call = call noundef nonnull align 1 dereferenceable(1) ptr @_ZNK4llvh8ArrayRefIhEixEm(ptr noundef nonnull align 8 dereferenceable(16) %data, i64 noundef %conv)
  %call1 = call noundef i64 @_ZN4llvh13decodeSLEB128EPKhPjS1_PPKc(ptr noundef %call, ptr noundef %size, ptr noundef null, ptr noundef null)
  %3 = load ptr, ptr %output.addr, align 8
  store i64 %call1, ptr %3, align 8
  %4 = load i32, ptr %size, align 4
  ret i32 %4
}