; Function Attrs: mustprogress nofree norecurse nosync nounwind memory(read, argmem: readwrite, inaccessiblemem: none) uwtable
define hidden noundef i32 @_ZN6hermes16readSignedLEB128EN4llvh8ArrayRefIhEEjPl(ptr %data.coerce0, i64 %data.coerce1, i32 noundef %offset, ptr nocapture noundef writeonly %output) local_unnamed_addr #1 {
entry:
  %conv = zext i32 %offset to i64
  %arrayidx.i = getelementptr inbounds i8, ptr %data.coerce0, i64 %conv
  br label %do.body.us.i

do.body.us.i:                                     ; preds = %do.body.us.i, %entry
  %p.addr.0.us.i = phi ptr [ %incdec.ptr.us.i, %do.body.us.i ], [ %arrayidx.i, %entry ]
  %Value.0.us.i = phi i64 [ %or.us.i, %do.body.us.i ], [ 0, %entry ]
  %Shift.0.us.i = phi i32 [ %add.us.i, %do.body.us.i ], [ 0, %entry ]
  %incdec.ptr.us.i = getelementptr inbounds i8, ptr %p.addr.0.us.i, i64 1
  %0 = load i8, ptr %p.addr.0.us.i, align 1
  %1 = and i8 %0, 127
  %conv8.us.i = zext nneg i8 %1 to i64
  %sh_prom.us.i = zext nneg i32 %Shift.0.us.i to i64
  %shl.us.i = shl i64 %conv8.us.i, %sh_prom.us.i
  %or.us.i = or i64 %shl.us.i, %Value.0.us.i
  %add.us.i = add i32 %Shift.0.us.i, 7
  %cmp10.us.i = icmp slt i8 %0, 0
  br i1 %cmp10.us.i, label %do.body.us.i, label %_ZN4llvh13decodeSLEB128EPKhPjS1_PPKc.exit, !llvm.loop !8

_ZN4llvh13decodeSLEB128EPKhPjS1_PPKc.exit:        ; preds = %do.body.us.i
  %p25.i = ptrtoint ptr %arrayidx.i to i64
  %tobool13.not.i = icmp ult i8 %0, 64
  %sh_prom15.i = zext nneg i32 %add.us.i to i64
  %shl16.i = shl nsw i64 -1, %sh_prom15.i
  %or17.i = select i1 %tobool13.not.i, i64 0, i64 %shl16.i
  %Value.1.i = or i64 %or.us.i, %or17.i
  %sub.ptr.lhs.cast21.i = ptrtoint ptr %incdec.ptr.us.i to i64
  %sub.ptr.sub23.i = sub i64 %sub.ptr.lhs.cast21.i, %p25.i
  %conv24.i = trunc i64 %sub.ptr.sub23.i to i32
  store i64 %Value.1.i, ptr %output, align 8
  ret i32 %conv24.i
}